	.section	__TEXT,__text,regular,pure_instructions
	.macosx_version_min 10, 11
	.globl	_print
	.align	4, 0x90
_print:                                 ## @print
	.cfi_startproc
## BB#0:
	pushq	%rbp
Ltmp0:
	.cfi_def_cfa_offset 16
Ltmp1:
	.cfi_offset %rbp, -16
	movq	%rsp, %rbp
Ltmp2:
	.cfi_def_cfa_register %rbp
	subq	$16, %rsp
	leaq	L_.str(%rip), %rdi
	movb	$0, %al
	callq	_printf
	movl	%eax, -4(%rbp)          ## 4-byte Spill
	addq	$16, %rsp
	popq	%rbp
	retq
	.cfi_endproc

	.globl	_exec
	.align	4, 0x90
_exec:                                  ## @exec
	.cfi_startproc
## BB#0:
	pushq	%rbp
Ltmp3:
	.cfi_def_cfa_offset 16
Ltmp4:
	.cfi_offset %rbp, -16
	movq	%rsp, %rbp
Ltmp5:
	.cfi_def_cfa_register %rbp
	subq	$16, %rsp
	movq	%rdi, -8(%rbp)
	movb	$0, %al
	callq	*-8(%rbp)
	addq	$16, %rsp
	popq	%rbp
	retq
	.cfi_endproc

	.globl	_main
	.align	4, 0x90
_main:                                  ## @main
	.cfi_startproc
## BB#0:
	pushq	%rbp
Ltmp6:
	.cfi_def_cfa_offset 16
Ltmp7:
	.cfi_offset %rbp, -16
	movq	%rsp, %rbp
Ltmp8:
	.cfi_def_cfa_register %rbp
	leaq	_print(%rip), %rax
	movq	%rax, %rdi
	callq	_exec
	xorl	%eax, %eax
	popq	%rbp
	retq
	.cfi_endproc

	.section	__TEXT,__cstring,cstring_literals
L_.str:                                 ## @.str
	.asciz	"hello~\n"


.subsections_via_symbols
